target datalayout = "e-m:e-p270:32:32-p271:32:32-p272:64:64-i64:64-i128:128-f80:128-n8:16:32:64-S128"
target triple = "x86_64-pc-linux-gnu"

%struct.AVFilterContext = type { ptr, ptr, ptr, ptr, ptr, i32, ptr, ptr, i32, ptr, ptr, i32, i32, ptr, ptr, ptr, ptr, i32, ptr, i32, i32 }
%struct.NLMeansContext = type { ptr, i32, i32, i32, double, double, i32, i32, i32, i32, i32, i32, i32, i32, ptr, ptr, i32, i32, i64, ptr, ptr, i32, ptr, i32, %struct.NLMeansDSPContext }
%struct.NLMeansDSPContext = type { ptr, ptr }
%struct.thread_data = type { ptr, i64, i32, i32, i32, i32, ptr, i32 }

; Function Attrs: nounwind uwtable
define internal i32 @nlmeans_slice(ptr noundef %0, ptr noundef %1, i32 noundef %2, i32 noundef %3) #1 {
  %5 = alloca ptr, align 8
  %6 = alloca ptr, align 8
  %7 = alloca i32, align 4
  %8 = alloca i32, align 4
  %9 = alloca ptr, align 8
  %10 = alloca i32, align 4
  %11 = alloca ptr, align 8
  %12 = alloca i64, align 8
  %13 = alloca i32, align 4
  %14 = alloca i32, align 4
  %15 = alloca i32, align 4
  %16 = alloca i32, align 4
  %17 = alloca i32, align 4
  %18 = alloca i32, align 4
  %19 = alloca ptr, align 8
  %20 = alloca i32, align 4
  %21 = alloca i32, align 4
  %22 = alloca i32, align 4
  %23 = alloca ptr, align 8
  %24 = alloca ptr, align 8
  %25 = alloca i32, align 4
  %26 = alloca ptr, align 8
  %27 = alloca ptr, align 8
  %28 = alloca ptr, align 8
  %29 = alloca ptr, align 8
  %30 = alloca ptr, align 8
  %31 = alloca ptr, align 8
  %32 = alloca ptr, align 8
  store ptr %0, ptr %5, align 8, !tbaa !4
  store ptr %1, ptr %6, align 8, !tbaa !98
  store i32 %2, ptr %7, align 4, !tbaa !35
  store i32 %3, ptr %8, align 4, !tbaa !35
  call void @llvm.lifetime.start.p0(i64 8, ptr %9) #10
  %33 = load ptr, ptr %5, align 8, !tbaa !4
  %34 = getelementptr inbounds nuw %struct.AVFilterContext, ptr %33, i32 0, i32 9
  %35 = load ptr, ptr %34, align 8, !tbaa !9
  store ptr %35, ptr %9, align 8, !tbaa !22
  call void @llvm.lifetime.start.p0(i64 4, ptr %10) #10
  %36 = load ptr, ptr %9, align 8, !tbaa !22
  %37 = getelementptr inbounds nuw %struct.NLMeansContext, ptr %36, i32 0, i32 23
  %38 = load i32, ptr %37, align 8, !tbaa !33
  store i32 %38, ptr %10, align 4, !tbaa !35
  call void @llvm.lifetime.start.p0(i64 8, ptr %11) #10
  %39 = load ptr, ptr %6, align 8, !tbaa !98
  store ptr %39, ptr %11, align 8, !tbaa !99
  call void @llvm.lifetime.start.p0(i64 8, ptr %12) #10
  %40 = load ptr, ptr %11, align 8, !tbaa !99
  %41 = getelementptr inbounds nuw %struct.thread_data, ptr %40, i32 0, i32 1
  %42 = load i64, ptr %41, align 8, !tbaa !86
  store i64 %42, ptr %12, align 8, !tbaa !82
  call void @llvm.lifetime.start.p0(i64 4, ptr %13) #10
  %43 = load ptr, ptr %11, align 8, !tbaa !99
  %44 = getelementptr inbounds nuw %struct.thread_data, ptr %43, i32 0, i32 5
  %45 = load i32, ptr %44, align 4, !tbaa !90
  %46 = load ptr, ptr %11, align 8, !tbaa !99
  %47 = getelementptr inbounds nuw %struct.thread_data, ptr %46, i32 0, i32 3
  %48 = load i32, ptr %47, align 4, !tbaa !88
  %49 = sub nsw i32 %45, %48
  store i32 %49, ptr %13, align 4, !tbaa !35
  call void @llvm.lifetime.start.p0(i64 4, ptr %14) #10
  %50 = load i32, ptr %13, align 4, !tbaa !35
  %51 = load i32, ptr %7, align 4, !tbaa !35
  %52 = mul nsw i32 %50, %51
  %53 = load i32, ptr %8, align 4, !tbaa !35
  %54 = sdiv i32 %52, %53
  store i32 %54, ptr %14, align 4, !tbaa !35
  call void @llvm.lifetime.start.p0(i64 4, ptr %15) #10
  %55 = load i32, ptr %13, align 4, !tbaa !35
  %56 = load i32, ptr %7, align 4, !tbaa !35
  %57 = add nsw i32 %56, 1
  %58 = mul nsw i32 %55, %57
  %59 = load i32, ptr %8, align 4, !tbaa !35
  %60 = sdiv i32 %58, %59
  store i32 %60, ptr %15, align 4, !tbaa !35
  call void @llvm.lifetime.start.p0(i64 4, ptr %16) #10
  %61 = load ptr, ptr %11, align 8, !tbaa !99
  %62 = getelementptr inbounds nuw %struct.thread_data, ptr %61, i32 0, i32 3
  %63 = load i32, ptr %62, align 4, !tbaa !88
  %64 = load i32, ptr %14, align 4, !tbaa !35
  %65 = add nsw i32 %63, %64
  store i32 %65, ptr %16, align 4, !tbaa !35
  call void @llvm.lifetime.start.p0(i64 4, ptr %17) #10
  %66 = load ptr, ptr %11, align 8, !tbaa !99
  %67 = getelementptr inbounds nuw %struct.thread_data, ptr %66, i32 0, i32 3
  %68 = load i32, ptr %67, align 4, !tbaa !88
  %69 = load i32, ptr %15, align 4, !tbaa !35
  %70 = add nsw i32 %68, %69
  store i32 %70, ptr %17, align 4, !tbaa !35
  call void @llvm.lifetime.start.p0(i64 4, ptr %18) #10
  %71 = load ptr, ptr %11, align 8, !tbaa !99
  %72 = getelementptr inbounds nuw %struct.thread_data, ptr %71, i32 0, i32 7
  %73 = load i32, ptr %72, align 8, !tbaa !92
  store i32 %73, ptr %18, align 4, !tbaa !35
  call void @llvm.lifetime.start.p0(i64 8, ptr %19) #10
  %74 = load ptr, ptr %11, align 8, !tbaa !99
  %75 = getelementptr inbounds nuw %struct.thread_data, ptr %74, i32 0, i32 6
  %76 = load ptr, ptr %75, align 8, !tbaa !91
  %77 = load i32, ptr %16, align 4, !tbaa !35
  %78 = load i32, ptr %18, align 4, !tbaa !35
  %79 = sub nsw i32 %77, %78
  %80 = sub nsw i32 %79, 1
  %81 = sext i32 %80 to i64
  %82 = load ptr, ptr %9, align 8, !tbaa !22
  %83 = getelementptr inbounds nuw %struct.NLMeansContext, ptr %82, i32 0, i32 18
  %84 = load i64, ptr %83, align 8, !tbaa !76
  %85 = mul nsw i64 %81, %84
  %86 = getelementptr inbounds i32, ptr %76, i64 %85
  %87 = load i32, ptr %18, align 4, !tbaa !35
  %88 = sext i32 %87 to i64
  %89 = sub i64 0, %88
  %90 = getelementptr inbounds i32, ptr %86, i64 %89
  %91 = getelementptr inbounds i32, ptr %90, i64 -1
  store ptr %91, ptr %19, align 8, !tbaa !83
  call void @llvm.lifetime.start.p0(i64 4, ptr %20) #10
  %92 = load i32, ptr %18, align 4, !tbaa !35
  %93 = mul nsw i32 2, %92
  %94 = add nsw i32 %93, 1
  store i32 %94, ptr %20, align 4, !tbaa !35
  call void @llvm.lifetime.start.p0(i64 4, ptr %21) #10
  %95 = load i32, ptr %20, align 4, !tbaa !35
  %96 = sext i32 %95 to i64
  %97 = load ptr, ptr %9, align 8, !tbaa !22
  %98 = getelementptr inbounds nuw %struct.NLMeansContext, ptr %97, i32 0, i32 18
  %99 = load i64, ptr %98, align 8, !tbaa !76
  %100 = mul nsw i64 %96, %99
  %101 = trunc i64 %100 to i32
  store i32 %101, ptr %21, align 4, !tbaa !35
  call void @llvm.lifetime.start.p0(i64 4, ptr %22) #10
  %102 = load i32, ptr %21, align 4, !tbaa !35
  %103 = load i32, ptr %20, align 4, !tbaa !35
  %104 = add nsw i32 %102, %103
  store i32 %104, ptr %22, align 4, !tbaa !35
  call void @llvm.lifetime.start.p0(i64 8, ptr %23) #10
  %105 = load ptr, ptr %9, align 8, !tbaa !22
  %106 = getelementptr inbounds nuw %struct.NLMeansContext, ptr %105, i32 0, i32 22
  %107 = load ptr, ptr %106, align 8, !tbaa !34
  store ptr %107, ptr %23, align 8, !tbaa !101
  call void @llvm.lifetime.start.p0(i64 8, ptr %24) #10
  %108 = load ptr, ptr %9, align 8, !tbaa !22
  %109 = getelementptr inbounds nuw %struct.NLMeansContext, ptr %108, i32 0, i32 24
  store ptr %109, ptr %24, align 8, !tbaa !95
  call void @llvm.lifetime.start.p0(i64 4, ptr %25) #10
  %110 = load i32, ptr %16, align 4, !tbaa !35
  store i32 %110, ptr %25, align 4, !tbaa !35
  br label %111

111:                                              ; preds = %181, %4
  %112 = load i32, ptr %25, align 4, !tbaa !35
  %113 = load i32, ptr %17, align 4, !tbaa !35
  %114 = icmp slt i32 %112, %113
  br i1 %114, label %116, label %115

115:                                              ; preds = %111
  call void @llvm.lifetime.end.p0(i64 4, ptr %25) #10
  br label %184

116:                                              ; preds = %111
  call void @llvm.lifetime.start.p0(i64 8, ptr %26) #10
  %117 = load ptr, ptr %11, align 8, !tbaa !99
  %118 = getelementptr inbounds nuw %struct.thread_data, ptr %117, i32 0, i32 0
  %119 = load ptr, ptr %118, align 8, !tbaa !84
  %120 = load i32, ptr %25, align 4, !tbaa !35
  %121 = sext i32 %120 to i64
  %122 = load i64, ptr %12, align 8, !tbaa !82
  %123 = mul nsw i64 %121, %122
  %124 = getelementptr inbounds i8, ptr %119, i64 %123
  store ptr %124, ptr %26, align 8, !tbaa !66
  call void @llvm.lifetime.start.p0(i64 8, ptr %27) #10
  %125 = load ptr, ptr %9, align 8, !tbaa !22
  %126 = getelementptr inbounds nuw %struct.NLMeansContext, ptr %125, i32 0, i32 19
  %127 = load ptr, ptr %126, align 8, !tbaa !80
  %128 = load i32, ptr %25, align 4, !tbaa !35
  %129 = load ptr, ptr %9, align 8, !tbaa !22
  %130 = getelementptr inbounds nuw %struct.NLMeansContext, ptr %129, i32 0, i32 21
  %131 = load i32, ptr %130, align 8, !tbaa !79
  %132 = mul nsw i32 %128, %131
  %133 = sext i32 %132 to i64
  %134 = getelementptr inbounds float, ptr %127, i64 %133
  store ptr %134, ptr %27, align 8, !tbaa !101
  call void @llvm.lifetime.start.p0(i64 8, ptr %28) #10
  %135 = load ptr, ptr %9, align 8, !tbaa !22
  %136 = getelementptr inbounds nuw %struct.NLMeansContext, ptr %135, i32 0, i32 20
  %137 = load ptr, ptr %136, align 8, !tbaa !81
  %138 = load i32, ptr %25, align 4, !tbaa !35
  %139 = load ptr, ptr %9, align 8, !tbaa !22
  %140 = getelementptr inbounds nuw %struct.NLMeansContext, ptr %139, i32 0, i32 21
  %141 = load i32, ptr %140, align 8, !tbaa !79
  %142 = mul nsw i32 %138, %141
  %143 = sext i32 %142 to i64
  %144 = getelementptr inbounds float, ptr %137, i64 %143
  store ptr %144, ptr %28, align 8, !tbaa !101
  call void @llvm.lifetime.start.p0(i64 8, ptr %29) #10
  %145 = load ptr, ptr %19, align 8, !tbaa !83
  store ptr %145, ptr %29, align 8, !tbaa !83
  call void @llvm.lifetime.start.p0(i64 8, ptr %30) #10
  %146 = load ptr, ptr %19, align 8, !tbaa !83
  %147 = load i32, ptr %20, align 4, !tbaa !35
  %148 = sext i32 %147 to i64
  %149 = getelementptr inbounds i32, ptr %146, i64 %148
  store ptr %149, ptr %30, align 8, !tbaa !83
  call void @llvm.lifetime.start.p0(i64 8, ptr %31) #10
  %150 = load ptr, ptr %19, align 8, !tbaa !83
  %151 = load i32, ptr %21, align 4, !tbaa !35
  %152 = sext i32 %151 to i64
  %153 = getelementptr inbounds i32, ptr %150, i64 %152
  store ptr %153, ptr %31, align 8, !tbaa !83
  call void @llvm.lifetime.start.p0(i64 8, ptr %32) #10
  %154 = load ptr, ptr %19, align 8, !tbaa !83
  %155 = load i32, ptr %22, align 4, !tbaa !35
  %156 = sext i32 %155 to i64
  %157 = getelementptr inbounds i32, ptr %154, i64 %156
  store ptr %157, ptr %32, align 8, !tbaa !83
  %158 = load ptr, ptr %24, align 8, !tbaa !95
  %159 = getelementptr inbounds nuw %struct.NLMeansDSPContext, ptr %158, i32 0, i32 1
  %160 = load ptr, ptr %159, align 8, !tbaa !102
  %161 = load ptr, ptr %29, align 8, !tbaa !83
  %162 = load ptr, ptr %30, align 8, !tbaa !83
  %163 = load ptr, ptr %31, align 8, !tbaa !83
  %164 = load ptr, ptr %32, align 8, !tbaa !83
  %165 = load ptr, ptr %26, align 8, !tbaa !66
  %166 = load ptr, ptr %27, align 8, !tbaa !101
  %167 = load ptr, ptr %28, align 8, !tbaa !101
  %168 = load ptr, ptr %23, align 8, !tbaa !101
  %169 = load i32, ptr %10, align 4, !tbaa !35
  %170 = load ptr, ptr %11, align 8, !tbaa !99
  %171 = getelementptr inbounds nuw %struct.thread_data, ptr %170, i32 0, i32 2
  %172 = load i32, ptr %171, align 8, !tbaa !87
  %173 = load ptr, ptr %11, align 8, !tbaa !99
  %174 = getelementptr inbounds nuw %struct.thread_data, ptr %173, i32 0, i32 4
  %175 = load i32, ptr %174, align 8, !tbaa !89
  call void %160(ptr noundef %161, ptr noundef %162, ptr noundef %163, ptr noundef %164, ptr noundef %165, ptr noundef %166, ptr noundef %167, ptr noundef %168, i32 noundef %169, i32 noundef %172, i32 noundef %175)
  %176 = load ptr, ptr %9, align 8, !tbaa !22
  %177 = getelementptr inbounds nuw %struct.NLMeansContext, ptr %176, i32 0, i32 18
  %178 = load i64, ptr %177, align 8, !tbaa !76
  %179 = load ptr, ptr %19, align 8, !tbaa !83
  %180 = getelementptr inbounds i32, ptr %179, i64 %178
  store ptr %180, ptr %19, align 8, !tbaa !83
  call void @llvm.lifetime.end.p0(i64 8, ptr %32) #10
  call void @llvm.lifetime.end.p0(i64 8, ptr %31) #10
  call void @llvm.lifetime.end.p0(i64 8, ptr %30) #10
  call void @llvm.lifetime.end.p0(i64 8, ptr %29) #10
  call void @llvm.lifetime.end.p0(i64 8, ptr %28) #10
  call void @llvm.lifetime.end.p0(i64 8, ptr %27) #10
  call void @llvm.lifetime.end.p0(i64 8, ptr %26) #10
  br label %181

181:                                              ; preds = %116
  %182 = load i32, ptr %25, align 4, !tbaa !35
  %183 = add nsw i32 %182, 1
  store i32 %183, ptr %25, align 4, !tbaa !35
  br label %111, !llvm.loop !103

184:                                              ; preds = %115
  call void @llvm.lifetime.end.p0(i64 8, ptr %24) #10
  call void @llvm.lifetime.end.p0(i64 8, ptr %23) #10
  call void @llvm.lifetime.end.p0(i64 4, ptr %22) #10
  call void @llvm.lifetime.end.p0(i64 4, ptr %21) #10
  call void @llvm.lifetime.end.p0(i64 4, ptr %20) #10
  call void @llvm.lifetime.end.p0(i64 8, ptr %19) #10
  call void @llvm.lifetime.end.p0(i64 4, ptr %18) #10
  call void @llvm.lifetime.end.p0(i64 4, ptr %17) #10
  call void @llvm.lifetime.end.p0(i64 4, ptr %16) #10
  call void @llvm.lifetime.end.p0(i64 4, ptr %15) #10
  call void @llvm.lifetime.end.p0(i64 4, ptr %14) #10
  call void @llvm.lifetime.end.p0(i64 4, ptr %13) #10
  call void @llvm.lifetime.end.p0(i64 8, ptr %12) #10
  call void @llvm.lifetime.end.p0(i64 8, ptr %11) #10
  call void @llvm.lifetime.end.p0(i64 4, ptr %10) #10
  call void @llvm.lifetime.end.p0(i64 8, ptr %9) #10
  ret i32 0
}