; Function Attrs: nounwind uwtable
define internal noundef i32 @nlmeans_slice(ptr noundef readonly captures(none) %0, ptr noundef readonly captures(none) %1, i32 noundef %2, i32 noundef %3) #1 {
  %5 = getelementptr inbounds nuw i8, ptr %0, i64 72
  %6 = load ptr, ptr %5, align 8, !tbaa !4
  %7 = getelementptr inbounds nuw i8, ptr %6, i64 136
  %8 = load i32, ptr %7, align 8, !tbaa !28
  %9 = getelementptr inbounds nuw i8, ptr %1, i64 8
  %10 = load i64, ptr %9, align 8, !tbaa !74
  %11 = getelementptr inbounds nuw i8, ptr %1, i64 28
  %12 = load i32, ptr %11, align 4, !tbaa !78
  %13 = getelementptr inbounds nuw i8, ptr %1, i64 20
  %14 = load i32, ptr %13, align 4, !tbaa !76
  %15 = sub nsw i32 %12, %14
  %16 = mul nsw i32 %15, %2
  %17 = sdiv i32 %16, %3
  %18 = add nsw i32 %2, 1
  %19 = mul nsw i32 %15, %18
  %20 = sdiv i32 %19, %3
  %21 = getelementptr inbounds nuw i8, ptr %1, i64 40
  %22 = load i32, ptr %21, align 8, !tbaa !80
  %23 = getelementptr inbounds nuw i8, ptr %6, i64 96
  %24 = shl nsw i32 %22, 1
  %25 = or disjoint i32 %24, 1
  %26 = sext i32 %25 to i64
  %27 = getelementptr inbounds nuw i8, ptr %6, i64 128
  %28 = load ptr, ptr %27, align 8, !tbaa !29
  %29 = icmp slt i32 %17, %20
  br i1 %29, label %.lr.ph, label %._crit_edge

.lr.ph:                                           ; preds = %4
  %30 = add nsw i32 %20, %14
  %31 = add i32 %17, %14
  %32 = load i64, ptr %23, align 8, !tbaa !64
  %33 = trunc i64 %32 to i32
  %34 = mul i32 %25, %33
  %35 = add nsw i32 %34, %25
  %36 = getelementptr inbounds nuw i8, ptr %1, i64 32
  %37 = load ptr, ptr %36, align 8, !tbaa !79
  %38 = xor i32 %22, -1
  %39 = add i32 %31, %38
  %40 = sext i32 %39 to i64
  %41 = mul nsw i64 %32, %40
  %42 = getelementptr inbounds i32, ptr %37, i64 %41
  %43 = sext i32 %22 to i64
  %44 = sub nsw i64 0, %43
  %45 = getelementptr inbounds i32, ptr %42, i64 %44
  %46 = getelementptr inbounds i8, ptr %45, i64 -4
  %47 = getelementptr inbounds nuw i8, ptr %6, i64 104
  %48 = getelementptr inbounds nuw i8, ptr %6, i64 120
  %49 = getelementptr inbounds nuw i8, ptr %6, i64 112
  %50 = sext i32 %34 to i64
  %51 = sext i32 %35 to i64
  %52 = getelementptr inbounds nuw i8, ptr %6, i64 152
  %53 = getelementptr inbounds nuw i8, ptr %1, i64 16
  %54 = getelementptr inbounds nuw i8, ptr %1, i64 24
  %55 = sext i32 %31 to i64
  %56 = sext i32 %30 to i64
  br label %57

._crit_edge:                                      ; preds = %57, %4
  ret i32 0

57:                                               ; preds = %.lr.ph, %57
  %indvars.iv = phi i64 [ %55, %.lr.ph ], [ %indvars.iv.next, %57 ]
  %.064 = phi ptr [ %46, %.lr.ph ], [ %75, %57 ]
  %58 = load ptr, ptr %1, align 8, !tbaa !72
  %59 = mul nsw i64 %10, %indvars.iv
  %60 = getelementptr inbounds i8, ptr %58, i64 %59
  %61 = load ptr, ptr %47, align 8, !tbaa !65
  %62 = load i32, ptr %48, align 8, !tbaa !66
  %63 = sext i32 %62 to i64
  %64 = mul nsw i64 %indvars.iv, %63
  %65 = getelementptr inbounds float, ptr %61, i64 %64
  %66 = load ptr, ptr %49, align 8, !tbaa !67
  %67 = getelementptr inbounds float, ptr %66, i64 %64
  %68 = getelementptr inbounds i32, ptr %.064, i64 %26
  %69 = getelementptr inbounds i32, ptr %.064, i64 %50
  %70 = getelementptr inbounds i32, ptr %.064, i64 %51
  %71 = load ptr, ptr %52, align 8, !tbaa !43
  %72 = load i32, ptr %53, align 8, !tbaa !75
  %73 = load i32, ptr %54, align 8, !tbaa !77
  tail call void %71(ptr noundef nonnull %.064, ptr noundef nonnull %68, ptr noundef %69, ptr noundef %70, ptr noundef %60, ptr noundef %65, ptr noundef %67, ptr noundef %28, i32 noundef %8, i32 noundef %72, i32 noundef %73) #9
  %74 = load i64, ptr %23, align 8, !tbaa !64
  %75 = getelementptr inbounds i32, ptr %.064, i64 %74
  %indvars.iv.next = add nsw i64 %indvars.iv, 1
  %76 = icmp slt i64 %indvars.iv.next, %56
  br i1 %76, label %57, label %._crit_edge, !llvm.loop !94
}